target datalayout = "e-m:e-p270:32:32-p271:32:32-p272:64:64-i64:64-i128:128-f80:128-n8:16:32:64-S128"
target triple = "x86_64-pc-linux-gnu"

@hf_oran_iSample = internal global i32 0, align 4
@hf_oran_qSample = internal global i32 0, align 4
@.str.1202 = private unnamed_addr constant [44 x i8] c"iSample: % 0.7f  0x%04x (RE-%2u in the PRB)\00", align 1
@.str.1203 = private unnamed_addr constant [44 x i8] c"qSample: % 0.7f  0x%04x (RE-%2u in the PRB)\00", align 1

; Function Attrs: nounwind null_pointer_is_valid sspstrong uwtable
define internal float @uncompressed_to_float(i32 noundef %0) #3 {
  %2 = alloca i32, align 4
  %3 = alloca i16, align 2
  store i32 %0, ptr %2, align 4
  call void @llvm.lifetime.start.p0(i64 2, ptr %3) #12
  %4 = load i32, ptr %2, align 4
  %5 = and i32 %4, 65535
  %6 = trunc i32 %5 to i16
  store i16 %6, ptr %3, align 2
  %7 = load i16, ptr %3, align 2
  %8 = sitofp i16 %7 to float
  %9 = fdiv float %8, 3.276700e+04
  call void @llvm.lifetime.end.p0(i64 2, ptr %3) #12
  ret float %9
}

; Function Attrs: null_pointer_is_valid sspstrong uwtable
define internal float @decompress_value(i32 noundef %0, i32 noundef %1, i8 noundef zeroext %2, i32 noundef %3) #0 {
  %5 = alloca float, align 4
  %6 = alloca i32, align 4
  %7 = alloca i32, align 4
  %8 = alloca i8, align 1
  %9 = alloca i32, align 4
  %10 = alloca i32, align 4
  %11 = alloca i32, align 4
  %12 = alloca i32, align 4
  %13 = alloca i32, align 4
  %14 = alloca float, align 4
  store i32 %0, ptr %6, align 4
  store i32 %1, ptr %7, align 4
  store i8 %2, ptr %8, align 1
  store i32 %3, ptr %9, align 4
  %15 = load i32, ptr %7, align 4
  switch i32 %15, label %58 [
    i32 0, label %16
    i32 1, label %19
    i32 5, label %19
    i32 2, label %56
    i32 3, label %56
    i32 4, label %57
    i32 6, label %57
  ]

16:                                               ; preds = %4
  %17 = load i32, ptr %6, align 4
  %18 = call float @uncompressed_to_float(i32 noundef %17)
  store float %18, ptr %5, align 4
  br label %59

19:                                               ; preds = %4, %4
  call void @llvm.lifetime.start.p0(i64 4, ptr %10) #12
  %20 = load i32, ptr %6, align 4
  store i32 %20, ptr %10, align 4
  call void @llvm.lifetime.start.p0(i64 4, ptr %11) #12
  %21 = load i32, ptr %9, align 4
  %22 = shl i32 1, %21
  store i32 %22, ptr %11, align 4
  %23 = load i32, ptr %10, align 4
  %24 = load i8, ptr %8, align 1
  %25 = zext i8 %24 to i32
  %26 = sub i32 %25, 1
  %27 = shl i32 1, %26
  %28 = icmp sge i32 %23, %27
  br i1 %28, label %29, label %35

29:                                               ; preds = %19
  %30 = load i8, ptr %8, align 1
  %31 = zext i8 %30 to i32
  %32 = shl i32 1, %31
  %33 = load i32, ptr %10, align 4
  %34 = sub i32 %33, %32
  store i32 %34, ptr %10, align 4
  br label %35

35:                                               ; preds = %29, %19
  %36 = load i32, ptr %11, align 4
  %37 = load i32, ptr %10, align 4
  %38 = mul i32 %37, %36
  store i32 %38, ptr %10, align 4
  call void @llvm.lifetime.start.p0(i64 4, ptr %12) #12
  %39 = load i8, ptr %8, align 1
  %40 = zext i8 %39 to i32
  %41 = sub i32 %40, 1
  %42 = shl i32 1, %41
  %43 = sub i32 %42, 1
  store i32 %43, ptr %12, align 4
  call void @llvm.lifetime.start.p0(i64 4, ptr %13) #12
  %44 = load i8, ptr %8, align 1
  %45 = zext i8 %44 to i32
  %46 = add i32 %45, 4
  %47 = shl i32 1, %46
  store i32 %47, ptr %13, align 4
  call void @llvm.lifetime.start.p0(i64 4, ptr %14) #12
  %48 = load i32, ptr %10, align 4
  %49 = sitofp i32 %48 to float
  %50 = load i32, ptr %12, align 4
  %51 = load i32, ptr %13, align 4
  %52 = mul i32 %50, %51
  %53 = uitofp i32 %52 to float
  %54 = fdiv float %49, %53
  store float %54, ptr %14, align 4
  %55 = load float, ptr %14, align 4
  store float %55, ptr %5, align 4
  call void @llvm.lifetime.end.p0(i64 4, ptr %14) #12
  call void @llvm.lifetime.end.p0(i64 4, ptr %13) #12
  call void @llvm.lifetime.end.p0(i64 4, ptr %12) #12
  call void @llvm.lifetime.end.p0(i64 4, ptr %11) #12
  call void @llvm.lifetime.end.p0(i64 4, ptr %10) #12
  br label %59

56:                                               ; preds = %4, %4
  store float 0.000000e+00, ptr %5, align 4
  br label %59

57:                                               ; preds = %4, %4
  store float 0.000000e+00, ptr %5, align 4
  br label %59

58:                                               ; preds = %4
  store float 0.000000e+00, ptr %5, align 4
  br label %59

59:                                               ; preds = %58, %57, %56, %35, %16
  %60 = load float, ptr %5, align 4
  ret float %60
}

; Function Attrs: null_pointer_is_valid sspstrong uwtable
define internal i32 @dissect_oran_u_re(ptr noundef %0, ptr noundef %1, i32 noundef %2, i32 noundef %3, i32 noundef %4, i32 noundef %5, i32 noundef %6) #0 {
  %8 = alloca ptr, align 8
  %9 = alloca ptr, align 8
  %10 = alloca i32, align 4
  %11 = alloca i32, align 4
  %12 = alloca i32, align 4
  %13 = alloca i32, align 4
  %14 = alloca i32, align 4
  %15 = alloca i32, align 4
  %16 = alloca float, align 4
  %17 = alloca i32, align 4
  %18 = alloca ptr, align 8
  %19 = alloca i32, align 4
  %20 = alloca float, align 4
  %21 = alloca ptr, align 8
  store ptr %0, ptr %8, align 8
  store ptr %1, ptr %9, align 8
  store i32 %2, ptr %10, align 4
  store i32 %3, ptr %11, align 4
  store i32 %4, ptr %12, align 4
  store i32 %5, ptr %13, align 4
  store i32 %6, ptr %14, align 4
  call void @llvm.lifetime.start.p0(i64 4, ptr %15) #12
  %22 = load ptr, ptr %8, align 8
  %23 = load i32, ptr %11, align 4
  %24 = load i32, ptr %12, align 4
  %25 = call i32 @tvb_get_bits(ptr noundef %22, i32 noundef %23, i32 noundef %24, i32 noundef 0)
  store i32 %25, ptr %15, align 4
  call void @llvm.lifetime.start.p0(i64 4, ptr %16) #12
  %26 = load i32, ptr %15, align 4
  %27 = load i32, ptr %13, align 4
  %28 = load i32, ptr %12, align 4
  %29 = trunc i32 %28 to i8
  %30 = load i32, ptr %14, align 4
  %31 = call float @decompress_value(i32 noundef %26, i32 noundef %27, i8 noundef zeroext %29, i32 noundef %30)
  store float %31, ptr %16, align 4
  call void @llvm.lifetime.start.p0(i64 4, ptr %17) #12
  %32 = load i32, ptr %11, align 4
  %33 = srem i32 %32, 8
  %34 = load i32, ptr %12, align 4
  %35 = add i32 %33, %34
  %36 = add i32 %35, 7
  %37 = udiv i32 %36, 8
  store i32 %37, ptr %17, align 4
  call void @llvm.lifetime.start.p0(i64 8, ptr %18) #12
  %38 = load ptr, ptr %9, align 8
  %39 = load i32, ptr @hf_oran_iSample, align 4
  %40 = load ptr, ptr %8, align 8
  %41 = load i32, ptr %11, align 4
  %42 = sdiv i32 %41, 8
  %43 = load i32, ptr %17, align 4
  %44 = load float, ptr %16, align 4
  %45 = call ptr @proto_tree_add_float(ptr noundef %38, i32 noundef %39, ptr noundef %40, i32 noundef %42, i32 noundef %43, float noundef %44)
  store ptr %45, ptr %18, align 8
  %46 = load ptr, ptr %18, align 8
  %47 = load float, ptr %16, align 4
  %48 = fpext float %47 to double
  %49 = load i32, ptr %15, align 4
  %50 = load i32, ptr %10, align 4
  call void (ptr, ptr, ...) @proto_item_set_text(ptr noundef %46, ptr noundef @.str.1202, double noundef %48, i32 noundef %49, i32 noundef %50)
  %51 = load i32, ptr %12, align 4
  %52 = load i32, ptr %11, align 4
  %53 = add i32 %52, %51
  store i32 %53, ptr %11, align 4
  call void @llvm.lifetime.start.p0(i64 4, ptr %19) #12
  %54 = load ptr, ptr %8, align 8
  %55 = load i32, ptr %11, align 4
  %56 = load i32, ptr %12, align 4
  %57 = call i32 @tvb_get_bits(ptr noundef %54, i32 noundef %55, i32 noundef %56, i32 noundef 0)
  store i32 %57, ptr %19, align 4
  call void @llvm.lifetime.start.p0(i64 4, ptr %20) #12
  %58 = load i32, ptr %19, align 4
  %59 = load i32, ptr %13, align 4
  %60 = load i32, ptr %12, align 4
  %61 = trunc i32 %60 to i8
  %62 = load i32, ptr %14, align 4
  %63 = call float @decompress_value(i32 noundef %58, i32 noundef %59, i8 noundef zeroext %61, i32 noundef %62)
  store float %63, ptr %20, align 4
  %64 = load i32, ptr %11, align 4
  %65 = srem i32 %64, 8
  %66 = load i32, ptr %12, align 4
  %67 = add i32 %65, %66
  %68 = add i32 %67, 7
  %69 = udiv i32 %68, 8
  store i32 %69, ptr %17, align 4
  call void @llvm.lifetime.start.p0(i64 8, ptr %21) #12
  %70 = load ptr, ptr %9, align 8
  %71 = load i32, ptr @hf_oran_qSample, align 4
  %72 = load ptr, ptr %8, align 8
  %73 = load i32, ptr %11, align 4
  %74 = sdiv i32 %73, 8
  %75 = load i32, ptr %17, align 4
  %76 = load float, ptr %20, align 4
  %77 = call ptr @proto_tree_add_float(ptr noundef %70, i32 noundef %71, ptr noundef %72, i32 noundef %74, i32 noundef %75, float noundef %76)
  store ptr %77, ptr %21, align 8
  %78 = load ptr, ptr %21, align 8
  %79 = load float, ptr %20, align 4
  %80 = fpext float %79 to double
  %81 = load i32, ptr %19, align 4
  %82 = load i32, ptr %10, align 4
  call void (ptr, ptr, ...) @proto_item_set_text(ptr noundef %78, ptr noundef @.str.1203, double noundef %80, i32 noundef %81, i32 noundef %82)
  %83 = load i32, ptr %12, align 4
  %84 = load i32, ptr %11, align 4
  %85 = add i32 %84, %83
  store i32 %85, ptr %11, align 4
  %86 = load i32, ptr %11, align 4
  call void @llvm.lifetime.end.p0(i64 8, ptr %21) #12
  call void @llvm.lifetime.end.p0(i64 4, ptr %20) #12
  call void @llvm.lifetime.end.p0(i64 4, ptr %19) #12
  call void @llvm.lifetime.end.p0(i64 8, ptr %18) #12
  call void @llvm.lifetime.end.p0(i64 4, ptr %17) #12
  call void @llvm.lifetime.end.p0(i64 4, ptr %16) #12
  call void @llvm.lifetime.end.p0(i64 4, ptr %15) #12
  ret i32 %86
}