; Function Attrs: null_pointer_is_valid sspstrong uwtable
define internal fastcc noundef i32 @dissect_oran_u_re(ptr noundef %0, ptr noundef %1, i32 noundef range(i32 0, 13) %2, i32 noundef %3, i32 noundef %4, i32 noundef %5, i32 noundef %6) unnamed_addr #0 {
  %8 = tail call i32 @tvb_get_bits(ptr noundef %0, i32 noundef %3, i32 noundef %4, i32 noundef 0)
  switch i32 %5, label %decompress_value.exit [
    i32 0, label %9
    i32 1, label %13
    i32 5, label %13
  ]

9:                                                ; preds = %7
  %10 = trunc i32 %8 to i16
  %11 = sitofp i16 %10 to float
  %12 = fdiv float %11, 3.276700e+04
  br label %decompress_value.exit

13:                                               ; preds = %7, %7
  %14 = and i32 %4, 255
  %15 = add nsw i32 %14, -1
  %16 = shl nuw i32 1, %15
  %.not.i = icmp slt i32 %8, %16
  %.neg.i = shl nsw i32 -1, %14
  %17 = select i1 %.not.i, i32 0, i32 %.neg.i
  %.016.i = add i32 %17, %8
  %18 = shl i32 %.016.i, %6
  %19 = add i32 %16, -1
  %20 = sitofp i32 %18 to float
  %21 = add nuw nsw i32 %14, 4
  %22 = shl i32 %19, %21
  %23 = uitofp i32 %22 to float
  %24 = fdiv float %20, %23
  br label %decompress_value.exit

decompress_value.exit:                            ; preds = %7, %9, %13
  %.0.i = phi float [ %24, %13 ], [ %12, %9 ], [ 0.000000e+00, %7 ]
  %25 = srem i32 %3, 8
  %26 = add i32 %4, 7
  %27 = add i32 %26, %25
  %28 = lshr i32 %27, 3
  %29 = load i32, ptr @hf_oran_iSample, align 4
  %30 = sdiv i32 %3, 8
  %31 = tail call ptr @proto_tree_add_float(ptr noundef %1, i32 noundef %29, ptr noundef %0, i32 noundef %30, i32 noundef %28, float noundef %.0.i)
  %32 = fpext float %.0.i to double
  tail call void (ptr, ptr, ...) @proto_item_set_text(ptr noundef %31, ptr noundef nonnull @.str.1202, double noundef %32, i32 noundef %8, i32 noundef %2)
  %33 = add i32 %4, %3
  %34 = tail call i32 @tvb_get_bits(ptr noundef %0, i32 noundef %33, i32 noundef %4, i32 noundef 0)
  switch i32 %5, label %decompress_value.exit44 [
    i32 0, label %35
    i32 1, label %39
    i32 5, label %39
  ]

35:                                               ; preds = %decompress_value.exit
  %36 = trunc i32 %34 to i16
  %37 = sitofp i16 %36 to float
  %38 = fdiv float %37, 3.276700e+04
  br label %decompress_value.exit44

39:                                               ; preds = %decompress_value.exit, %decompress_value.exit
  %40 = and i32 %4, 255
  %41 = add nsw i32 %40, -1
  %42 = shl nuw i32 1, %41
  %.not.i40 = icmp slt i32 %34, %42
  %.neg.i41 = shl nsw i32 -1, %40
  %43 = select i1 %.not.i40, i32 0, i32 %.neg.i41
  %.016.i42 = add i32 %43, %34
  %44 = shl i32 %.016.i42, %6
  %45 = add i32 %42, -1
  %46 = sitofp i32 %44 to float
  %47 = add nuw nsw i32 %40, 4
  %48 = shl i32 %45, %47
  %49 = uitofp i32 %48 to float
  %50 = fdiv float %46, %49
  br label %decompress_value.exit44

decompress_value.exit44:                          ; preds = %decompress_value.exit, %35, %39
  %.0.i43 = phi float [ %50, %39 ], [ %38, %35 ], [ 0.000000e+00, %decompress_value.exit ]
  %51 = srem i32 %33, 8
  %52 = add i32 %26, %51
  %53 = lshr i32 %52, 3
  %54 = load i32, ptr @hf_oran_qSample, align 4
  %55 = sdiv i32 %33, 8
  %56 = tail call ptr @proto_tree_add_float(ptr noundef %1, i32 noundef %54, ptr noundef %0, i32 noundef %55, i32 noundef %53, float noundef %.0.i43)
  %57 = fpext float %.0.i43 to double
  tail call void (ptr, ptr, ...) @proto_item_set_text(ptr noundef %56, ptr noundef nonnull @.str.1203, double noundef %57, i32 noundef %34, i32 noundef %2)
  %58 = add i32 %33, %4
  ret i32 %58
}